target datalayout = "e-m:e-p270:32:32-p271:32:32-p272:64:64-i64:64-i128:128-f80:128-n8:16:32:64-S128"
target triple = "x86_64-pc-linux-gnu"

%struct._cmsStage_struct = type { ptr, i32, i32, i32, i32, ptr, ptr, ptr, ptr, ptr }

@_cmsStageNormalizeFromLabFloat.a1 = internal constant [9 x double] [double 1.000000e-02, double 0.000000e+00, double 0.000000e+00, double 0.000000e+00, double 0x3F70101010101010, double 0.000000e+00, double 0.000000e+00, double 0.000000e+00, double 0x3F70101010101010], align 16
@_cmsStageNormalizeFromLabFloat.o1 = internal constant [3 x double] [double 0.000000e+00, double 0x3FE0101010101010, double 0x3FE0101010101010], align 16

; Function Attrs: nounwind uwtable
define hidden ptr @_cmsStageNormalizeFromLabFloat(ptr noundef %0) #0 {
  %2 = alloca ptr, align 8
  %3 = alloca ptr, align 8
  %4 = alloca ptr, align 8
  store ptr %0, ptr %3, align 8
  %5 = load ptr, ptr %3, align 8
  %6 = call ptr @cmsStageAllocMatrix(ptr noundef %5, i32 noundef 3, i32 noundef 3, ptr noundef @_cmsStageNormalizeFromLabFloat.a1, ptr noundef @_cmsStageNormalizeFromLabFloat.o1)
  store ptr %6, ptr %4, align 8
  %7 = load ptr, ptr %4, align 8
  %8 = icmp eq ptr %7, null
  br i1 %8, label %9, label %11

9:                                                ; preds = %1
  %10 = load ptr, ptr %4, align 8
  store ptr %10, ptr %2, align 8
  br label %15

11:                                               ; preds = %1
  %12 = load ptr, ptr %4, align 8
  %13 = getelementptr inbounds %struct._cmsStage_struct, ptr %12, i32 0, i32 2
  store i32 1681026080, ptr %13, align 4
  %14 = load ptr, ptr %4, align 8
  store ptr %14, ptr %2, align 8
  br label %15

15:                                               ; preds = %11, %9
  %16 = load ptr, ptr %2, align 8
  ret ptr %16
}